target datalayout = "e-m:e-p270:32:32-p271:32:32-p272:64:64-i64:64-i128:128-f80:128-n8:16:32:64-S128"
target triple = "x86_64-pc-linux-gnu"

%class.ControlIntrinsicIter = type <{ i8, [7 x i8], ptr, ptr, ptr, i8, [7 x i8] }>

@.str.15 = private unnamed_addr constant [41 x i8] c"failed to parse %s. must start with +/-!\00", align 1

; Function Attrs: mustprogress nounwind uwtable
define hidden void @_ZN20ControlIntrinsicIter10next_tokenEv(ptr noundef nonnull align 8 dereferenceable(33) %0) #1 align 2 {
  %2 = alloca ptr, align 8
  %3 = alloca i8, align 1
  store ptr %0, ptr %2, align 8
  %4 = load ptr, ptr %2, align 8
  %5 = getelementptr inbounds %class.ControlIntrinsicIter, ptr %4, i32 0, i32 2
  %6 = load ptr, ptr %5, align 8
  %7 = icmp ne ptr %6, null
  br i1 %7, label %8, label %37

8:                                                ; preds = %1
  %9 = getelementptr inbounds %class.ControlIntrinsicIter, ptr %4, i32 0, i32 5
  %10 = load i8, ptr %9, align 8
  %11 = trunc i8 %10 to i1
  br i1 %11, label %37, label %12

12:                                               ; preds = %8
  %13 = getelementptr inbounds %class.ControlIntrinsicIter, ptr %4, i32 0, i32 2
  %14 = load ptr, ptr %13, align 8
  %15 = getelementptr inbounds i8, ptr %14, i64 0
  %16 = load i8, ptr %15, align 1
  store i8 %16, ptr %3, align 1
  %17 = load i8, ptr %3, align 1
  %18 = sext i8 %17 to i32
  %19 = icmp ne i32 %18, 43
  br i1 %19, label %20, label %27

20:                                               ; preds = %12
  %21 = load i8, ptr %3, align 1
  %22 = sext i8 %21 to i32
  %23 = icmp ne i32 %22, 45
  br i1 %23, label %24, label %27

24:                                               ; preds = %20
  %25 = getelementptr inbounds %class.ControlIntrinsicIter, ptr %4, i32 0, i32 2
  %26 = load ptr, ptr %25, align 8
  call void (ptr, ...) @_Z7warningPKcz(ptr noundef @.str.15, ptr noundef %26)
  br label %36

27:                                               ; preds = %20, %12
  %28 = load i8, ptr %3, align 1
  %29 = sext i8 %28 to i32
  %30 = icmp eq i32 %29, 43
  %31 = getelementptr inbounds %class.ControlIntrinsicIter, ptr %4, i32 0, i32 0
  %32 = zext i1 %30 to i8
  store i8 %32, ptr %31, align 8
  %33 = getelementptr inbounds %class.ControlIntrinsicIter, ptr %4, i32 0, i32 2
  %34 = load ptr, ptr %33, align 8
  %35 = getelementptr inbounds i8, ptr %34, i32 1
  store ptr %35, ptr %33, align 8
  br label %36

36:                                               ; preds = %27, %24
  br label %37

37:                                               ; preds = %36, %8, %1
  ret void
}