; Function Attrs: mustprogress nounwind uwtable
define hidden void @_ZN20ControlIntrinsicIter10next_tokenEv(ptr nocapture noundef nonnull align 8 dereferenceable(33) %0) local_unnamed_addr #0 align 2 {
  %2 = getelementptr inbounds i8, ptr %0, i64 8
  %3 = load ptr, ptr %2, align 8
  %.not = icmp eq ptr %3, null
  br i1 %.not, label %15, label %4

4:                                                ; preds = %1
  %5 = getelementptr inbounds i8, ptr %0, i64 32
  %6 = load i8, ptr %5, align 8
  %7 = trunc i8 %6 to i1
  br i1 %7, label %15, label %8

8:                                                ; preds = %4
  %9 = load i8, ptr %3, align 1
  switch i8 %9, label %10 [
    i8 45, label %11
    i8 43, label %11
  ]

10:                                               ; preds = %8
  tail call void (ptr, ...) @_Z7warningPKcz(ptr noundef nonnull @.str.15, ptr noundef nonnull %3) #14
  br label %15

11:                                               ; preds = %8, %8
  %12 = icmp eq i8 %9, 43
  %13 = zext i1 %12 to i8
  store i8 %13, ptr %0, align 8
  %14 = getelementptr inbounds i8, ptr %3, i64 1
  store ptr %14, ptr %2, align 8
  br label %15

15:                                               ; preds = %10, %11, %4, %1
  ret void
}